target datalayout = "e-m:e-p270:32:32-p271:32:32-p272:64:64-i64:64-i128:128-f80:128-n8:16:32:64-S128"
target triple = "x86_64-pc-linux-gnu"

%struct.expert_field = type { i32, i32 }
%struct.MessageHeader = type { [4 x i8], %struct.Version, i8, i8, i32, i32, i32, ptr }
%struct.Version = type { i8, i8 }

@hf_GIAS_LibraryManager_get_property_names_return_loop = internal global i32 0, align 4
@hf_GIAS_LibraryManager_get_property_names_return = internal global i32 0, align 4
@ei_gias_unknown_giop_msg = internal global %struct.expert_field zeroinitializer, align 4
@ei_gias_unknown_exception = internal global %struct.expert_field zeroinitializer, align 4
@ett_giop_sequence = internal global i32 0, align 4
@boundary = internal global i32 12, align 4
@.str.826 = private unnamed_addr constant [21 x i8] c"Unknown exception %d\00", align 1
@.str.827 = private unnamed_addr constant [24 x i8] c"Unknown GIOP message %d\00", align 1
@.str.963 = private unnamed_addr constant [55 x i8] c"sequence GIAS_LibraryManager_get_property_names_return\00", align 1

; Function Attrs: null_pointer_is_valid sspstrong uwtable
define internal void @decode_GIAS_LibraryManager_get_property_names(ptr noundef %0, ptr noundef %1, ptr noundef %2, ptr noundef %3, ptr noundef %4, ptr noundef %5, ptr noundef %6, i1 noundef zeroext %7) #0 {
  %9 = alloca ptr, align 8
  %10 = alloca ptr, align 8
  %11 = alloca ptr, align 8
  %12 = alloca ptr, align 8
  %13 = alloca ptr, align 8
  %14 = alloca ptr, align 8
  %15 = alloca ptr, align 8
  %16 = alloca i8, align 1
  %17 = alloca i32, align 4
  %18 = alloca i32, align 4
  %19 = alloca ptr, align 8
  store ptr %0, ptr %9, align 8
  store ptr %1, ptr %10, align 8
  store ptr %2, ptr %11, align 8
  store ptr %3, ptr %12, align 8
  store ptr %4, ptr %13, align 8
  store ptr %5, ptr %14, align 8
  store ptr %6, ptr %15, align 8
  %20 = zext i1 %7 to i8
  store i8 %20, ptr %16, align 1
  call void @llvm.lifetime.start.p0(i64 4, ptr %17) #6
  call void @llvm.lifetime.start.p0(i64 4, ptr %18) #6
  %21 = load ptr, ptr %14, align 8
  %22 = getelementptr inbounds nuw %struct.MessageHeader, ptr %21, i32 0, i32 3
  %23 = load i8, ptr %22, align 1
  %24 = zext i8 %23 to i32
  switch i32 %24, label %76 [
    i32 0, label %84
    i32 1, label %25
  ]

25:                                               ; preds = %8
  %26 = load ptr, ptr %14, align 8
  %27 = getelementptr inbounds nuw %struct.MessageHeader, ptr %26, i32 0, i32 6
  %28 = load i32, ptr %27, align 8
  switch i32 %28, label %68 [
    i32 0, label %29
    i32 1, label %75
  ]

29:                                               ; preds = %25
  %30 = load ptr, ptr %9, align 8
  %31 = load ptr, ptr %13, align 8
  %32 = load i8, ptr %16, align 1, !range !6, !noundef !7
  %33 = trunc i8 %32 to i1
  %34 = load i32, ptr @boundary, align 4
  %35 = call i32 @get_CDR_ulong(ptr noundef %30, ptr noundef %31, i1 noundef zeroext %33, i32 noundef %34)
  store i32 %35, ptr %17, align 4
  %36 = load ptr, ptr %11, align 8
  %37 = load i32, ptr @hf_GIAS_LibraryManager_get_property_names_return_loop, align 4
  %38 = load ptr, ptr %9, align 8
  %39 = load ptr, ptr %13, align 8
  %40 = load i32, ptr %39, align 4
  %41 = sub i32 %40, 4
  %42 = load i32, ptr %17, align 4
  %43 = call ptr @proto_tree_add_uint(ptr noundef %36, i32 noundef %37, ptr noundef %38, i32 noundef %41, i32 noundef 4, i32 noundef %42)
  call void @llvm.lifetime.start.p0(i64 8, ptr %19) #6
  %44 = load ptr, ptr %11, align 8
  store ptr %44, ptr %19, align 8
  %45 = load ptr, ptr %11, align 8
  %46 = load ptr, ptr %9, align 8
  %47 = load ptr, ptr %13, align 8
  %48 = load i32, ptr %47, align 4
  %49 = load i32, ptr @ett_giop_sequence, align 4
  %50 = call ptr @proto_tree_add_subtree(ptr noundef %45, ptr noundef %46, i32 noundef %48, i32 noundef -1, i32 noundef %49, ptr noundef null, ptr noundef @.str.963)
  store ptr %50, ptr %11, align 8
  store i32 0, ptr %18, align 4
  br label %51

51:                                               ; preds = %63, %29
  %52 = load i32, ptr %18, align 4
  %53 = load i32, ptr %17, align 4
  %54 = icmp ult i32 %52, %53
  br i1 %54, label %55, label %66

55:                                               ; preds = %51
  %56 = load ptr, ptr %11, align 8
  %57 = load ptr, ptr %9, align 8
  %58 = load ptr, ptr %13, align 8
  %59 = load i8, ptr %16, align 1, !range !6, !noundef !7
  %60 = trunc i8 %59 to i1
  %61 = load i32, ptr @boundary, align 4
  %62 = load i32, ptr @hf_GIAS_LibraryManager_get_property_names_return, align 4
  call void @giop_add_CDR_string(ptr noundef %56, ptr noundef %57, ptr noundef %58, i1 noundef zeroext %60, i32 noundef %61, i32 noundef %62)
  br label %63

63:                                               ; preds = %55
  %64 = load i32, ptr %18, align 4
  %65 = add i32 %64, 1
  store i32 %65, ptr %18, align 4
  br label %51, !llvm.loop !71

66:                                               ; preds = %51
  %67 = load ptr, ptr %19, align 8
  store ptr %67, ptr %11, align 8
  call void @llvm.lifetime.end.p0(i64 8, ptr %19) #6
  br label %75

68:                                               ; preds = %25
  %69 = load ptr, ptr %10, align 8
  %70 = load ptr, ptr %12, align 8
  %71 = load ptr, ptr %14, align 8
  %72 = getelementptr inbounds nuw %struct.MessageHeader, ptr %71, i32 0, i32 6
  %73 = load i32, ptr %72, align 8
  %74 = call ptr (ptr, ptr, ptr, ptr, ...) @expert_add_info_format(ptr noundef %69, ptr noundef %70, ptr noundef @ei_gias_unknown_exception, ptr noundef @.str.826, i32 noundef %73)
  br label %75

75:                                               ; preds = %68, %25, %66
  br label %84

76:                                               ; preds = %8
  %77 = load ptr, ptr %10, align 8
  %78 = load ptr, ptr %12, align 8
  %79 = load ptr, ptr %14, align 8
  %80 = getelementptr inbounds nuw %struct.MessageHeader, ptr %79, i32 0, i32 3
  %81 = load i8, ptr %80, align 1
  %82 = zext i8 %81 to i32
  %83 = call ptr (ptr, ptr, ptr, ptr, ...) @expert_add_info_format(ptr noundef %77, ptr noundef %78, ptr noundef @ei_gias_unknown_giop_msg, ptr noundef @.str.827, i32 noundef %82)
  br label %84

84:                                               ; preds = %76, %75, %8
  call void @llvm.lifetime.end.p0(i64 4, ptr %18) #6
  call void @llvm.lifetime.end.p0(i64 4, ptr %17) #6
  ret void
}